target datalayout = "e-m:e-p270:32:32-p271:32:32-p272:64:64-i64:64-i128:128-f80:128-n8:16:32:64-S128"
target triple = "x86_64-pc-linux-gnu"

%"struct.OpenImageIO::v3_1_0::ROI" = type { i32, i32, i32, i32, i32, i32, i32, i32 }
%"class.OpenImageIO::v3_1_0::paropt" = type <{ i32, i16, i16, i64, ptr, i8, [7 x i8] }>
%"class.std::function" = type { %"class.std::_Function_base", ptr }
%"class.std::_Function_base" = type { %"union.std::_Any_data", ptr }
%"union.std::_Any_data" = type { %"union.std::_Nocopy_types" }
%"union.std::_Nocopy_types" = type { { i64, i64 } }
%class.anon.270 = type { i8, i32, ptr, ptr, ptr }

; Function Attrs: mustprogress nounwind uwtable
define linkonce_odr noundef ptr @_ZNSt9_Any_data9_M_accessEv(ptr noundef nonnull align 8 dereferenceable(16) %0) #6 comdat align 2 {
  %2 = alloca ptr, align 8
  store ptr %0, ptr %2, align 8, !tbaa !1430
  %3 = load ptr, ptr %2, align 8
  %4 = getelementptr inbounds [16 x i8], ptr %3, i64 0, i64 0
  ret ptr %4
}

; Function Attrs: mustprogress nounwind uwtable
define internal noundef nonnull align 8 dereferenceable(8) ptr @_ZNSt9_Any_data9_M_accessIPZN11OpenImageIO6v3_1_0L17colorconvert_implIffEEbRNS2_8ImageBufERKS4_PKNS2_14ColorProcessorEbNS2_3ROIEiEUlSB_E_EERT_v(ptr noundef nonnull align 8 dereferenceable(16) %0) #6 align 2 {
  %2 = alloca ptr, align 8
  store ptr %0, ptr %2, align 8, !tbaa !1430
  %3 = load ptr, ptr %2, align 8
  %4 = call noundef ptr @_ZNSt9_Any_data9_M_accessEv(ptr noundef nonnull align 8 dereferenceable(16) %3) #5
  ret ptr %4
}

; Function Attrs: mustprogress uwtable
define internal void @_ZNSt14_Function_base13_Base_managerIZN11OpenImageIO6v3_1_0L17colorconvert_implIffEEbRNS2_8ImageBufERKS4_PKNS2_14ColorProcessorEbNS2_3ROIEiEUlSB_E_E9_M_createISC_EEvRSt9_Any_dataOT_St17integral_constantIbLb0EE(ptr noundef nonnull align 8 dereferenceable(16) %0, ptr noundef nonnull align 8 dereferenceable(32) %1) #7 align 2 {
  %3 = alloca ptr, align 8
  %4 = alloca ptr, align 8
  store ptr %0, ptr %3, align 8, !tbaa !1430
  store ptr %1, ptr %4, align 8, !tbaa !415
  %5 = call noalias noundef nonnull ptr @_Znwm(i64 noundef 32) #33
  %6 = load ptr, ptr %4, align 8, !tbaa !415
  call void @llvm.memcpy.p0.p0.i64(ptr align 16 %5, ptr align 8 %6, i64 32, i1 false), !tbaa.struct !1574
  %7 = load ptr, ptr %3, align 8, !tbaa !1430
  %8 = call noundef nonnull align 8 dereferenceable(8) ptr @_ZNSt9_Any_data9_M_accessIPZN11OpenImageIO6v3_1_0L17colorconvert_implIffEEbRNS2_8ImageBufERKS4_PKNS2_14ColorProcessorEbNS2_3ROIEiEUlSB_E_EERT_v(ptr noundef nonnull align 8 dereferenceable(16) %7) #5
  store ptr %5, ptr %8, align 8, !tbaa !415
  ret void
}

; Function Attrs: mustprogress uwtable
define internal void @_ZNSt14_Function_base13_Base_managerIZN11OpenImageIO6v3_1_0L17colorconvert_implIffEEbRNS2_8ImageBufERKS4_PKNS2_14ColorProcessorEbNS2_3ROIEiEUlSB_E_E15_M_init_functorISC_EEvRSt9_Any_dataOT_(ptr noundef nonnull align 8 dereferenceable(16) %0, ptr noundef nonnull align 8 dereferenceable(32) %1) #7 align 2 {
  %3 = alloca ptr, align 8
  %4 = alloca ptr, align 8
  store ptr %0, ptr %3, align 8, !tbaa !1430
  store ptr %1, ptr %4, align 8, !tbaa !415
  %5 = load ptr, ptr %3, align 8, !tbaa !1430
  %6 = load ptr, ptr %4, align 8, !tbaa !415
  call void @_ZNSt14_Function_base13_Base_managerIZN11OpenImageIO6v3_1_0L17colorconvert_implIffEEbRNS2_8ImageBufERKS4_PKNS2_14ColorProcessorEbNS2_3ROIEiEUlSB_E_E9_M_createISC_EEvRSt9_Any_dataOT_St17integral_constantIbLb0EE(ptr noundef nonnull align 8 dereferenceable(16) %5, ptr noundef nonnull align 8 dereferenceable(32) %6)
  ret void
}

; Function Attrs: mustprogress nounwind uwtable
define internal noundef zeroext i1 @_ZNSt14_Function_base13_Base_managerIZN11OpenImageIO6v3_1_0L17colorconvert_implIffEEbRNS2_8ImageBufERKS4_PKNS2_14ColorProcessorEbNS2_3ROIEiEUlSB_E_E21_M_not_empty_functionISC_EEbRKT_(ptr noundef nonnull align 8 dereferenceable(32) %0) #6 align 2 {
  %2 = alloca ptr, align 8
  store ptr %0, ptr %2, align 8, !tbaa !415
  ret i1 true
}

; Function Attrs: mustprogress nounwind uwtable
define linkonce_odr void @_ZNSt14_Function_baseC2Ev(ptr noundef nonnull align 8 dereferenceable(24) %0) unnamed_addr #6 comdat align 2 {
  %2 = alloca ptr, align 8
  store ptr %0, ptr %2, align 8, !tbaa !1422
  %3 = load ptr, ptr %2, align 8
  %4 = getelementptr inbounds nuw %"class.std::_Function_base", ptr %3, i32 0, i32 0
  store ptr null, ptr %4, align 8, !tbaa !218
  %5 = getelementptr inbounds nuw %"class.std::_Function_base", ptr %3, i32 0, i32 1
  store ptr null, ptr %5, align 8, !tbaa !1421
  ret void
}

; Function Attrs: mustprogress nounwind uwtable
define linkonce_odr void @_ZNSt14_Function_baseD2Ev(ptr noundef nonnull align 8 dereferenceable(24) %0) unnamed_addr #6 comdat align 2 personality ptr @__gxx_personality_v0 {
  %2 = alloca ptr, align 8
  store ptr %0, ptr %2, align 8, !tbaa !1422
  %3 = load ptr, ptr %2, align 8
  %4 = getelementptr inbounds nuw %"class.std::_Function_base", ptr %3, i32 0, i32 1
  %5 = load ptr, ptr %4, align 8, !tbaa !1421
  %6 = icmp ne ptr %5, null
  br i1 %6, label %7, label %14

7:                                                ; preds = %1
  %8 = getelementptr inbounds nuw %"class.std::_Function_base", ptr %3, i32 0, i32 1
  %9 = load ptr, ptr %8, align 8, !tbaa !1421
  %10 = getelementptr inbounds nuw %"class.std::_Function_base", ptr %3, i32 0, i32 0
  %11 = getelementptr inbounds nuw %"class.std::_Function_base", ptr %3, i32 0, i32 0
  %12 = invoke noundef zeroext i1 %9(ptr noundef nonnull align 8 dereferenceable(16) %10, ptr noundef nonnull align 8 dereferenceable(16) %11, i32 noundef 3)
          to label %13 unwind label %15

13:                                               ; preds = %7
  br label %14

14:                                               ; preds = %13, %1
  ret void

15:                                               ; preds = %7
  %16 = landingpad { ptr, i32 }
          catch ptr null
  %17 = extractvalue { ptr, i32 } %16, 0
  call void @__clang_call_terminate(ptr %17) #31
  unreachable
}

; Function Attrs: mustprogress uwtable
define internal void @_ZNSt8functionIFvN11OpenImageIO6v3_1_03ROIEEEC2IZNS1_L17colorconvert_implIffEEbRNS1_8ImageBufERKS7_PKNS1_14ColorProcessorEbS2_iEUlS2_E_vEEOT_(ptr noundef nonnull align 8 dereferenceable(32) %0, ptr noundef nonnull align 8 dereferenceable(32) %1) unnamed_addr #7 align 2 personality ptr @__gxx_personality_v0 {
  %3 = alloca ptr, align 8
  %4 = alloca ptr, align 8
  %5 = alloca ptr, align 8
  %6 = alloca i32, align 4
  store ptr %0, ptr %3, align 8, !tbaa !1393
  store ptr %1, ptr %4, align 8, !tbaa !415
  %7 = load ptr, ptr %3, align 8
  %8 = getelementptr inbounds i8, ptr %7, i64 0
  call void @llvm.memset.p0.i64(ptr align 8 %8, i8 0, i64 24, i1 false)
  call void @_ZNSt14_Function_baseC2Ev(ptr noundef nonnull align 8 dereferenceable(24) %7) #5
  %9 = getelementptr inbounds nuw %"class.std::function", ptr %7, i32 0, i32 1
  store ptr null, ptr %9, align 8, !tbaa !1418
  %10 = load ptr, ptr %4, align 8, !tbaa !415
  %11 = call noundef zeroext i1 @_ZNSt14_Function_base13_Base_managerIZN11OpenImageIO6v3_1_0L17colorconvert_implIffEEbRNS2_8ImageBufERKS4_PKNS2_14ColorProcessorEbNS2_3ROIEiEUlSB_E_E21_M_not_empty_functionISC_EEbRKT_(ptr noundef nonnull align 8 dereferenceable(32) %10) #5
  br i1 %11, label %12, label %22

12:                                               ; preds = %2
  %13 = getelementptr inbounds nuw %"class.std::_Function_base", ptr %7, i32 0, i32 0
  %14 = load ptr, ptr %4, align 8, !tbaa !415
  invoke void @_ZNSt14_Function_base13_Base_managerIZN11OpenImageIO6v3_1_0L17colorconvert_implIffEEbRNS2_8ImageBufERKS4_PKNS2_14ColorProcessorEbNS2_3ROIEiEUlSB_E_E15_M_init_functorISC_EEvRSt9_Any_dataOT_(ptr noundef nonnull align 8 dereferenceable(16) %13, ptr noundef nonnull align 8 dereferenceable(32) %14)
          to label %15 unwind label %18

15:                                               ; preds = %12
  %16 = getelementptr inbounds nuw %"class.std::function", ptr %7, i32 0, i32 1
  store ptr @_ZNSt17_Function_handlerIFvN11OpenImageIO6v3_1_03ROIEEZNS1_L17colorconvert_implIffEEbRNS1_8ImageBufERKS5_PKNS1_14ColorProcessorEbS2_iEUlS2_E_E9_M_invokeERKSt9_Any_dataOS2_, ptr %16, align 8, !tbaa !1418
  %17 = getelementptr inbounds nuw %"class.std::_Function_base", ptr %7, i32 0, i32 1
  store ptr @_ZNSt17_Function_handlerIFvN11OpenImageIO6v3_1_03ROIEEZNS1_L17colorconvert_implIffEEbRNS1_8ImageBufERKS5_PKNS1_14ColorProcessorEbS2_iEUlS2_E_E10_M_managerERSt9_Any_dataRKSE_St18_Manager_operation, ptr %17, align 8, !tbaa !1421
  br label %22

18:                                               ; preds = %12
  %19 = landingpad { ptr, i32 }
          cleanup
  %20 = extractvalue { ptr, i32 } %19, 0
  store ptr %20, ptr %5, align 8
  %21 = extractvalue { ptr, i32 } %19, 1
  store i32 %21, ptr %6, align 4
  call void @_ZNSt14_Function_baseD2Ev(ptr noundef nonnull align 8 dereferenceable(24) %7) #5
  br label %23

22:                                               ; preds = %15, %2
  ret void

23:                                               ; preds = %18
  %24 = load ptr, ptr %5, align 8
  %25 = load i32, ptr %6, align 4
  %26 = insertvalue { ptr, i32 } poison, ptr %24, 0
  %27 = insertvalue { ptr, i32 } %26, i32 %25, 1
  resume { ptr, i32 } %27
}

; Function Attrs: mustprogress nounwind uwtable
define linkonce_odr void @_ZN11OpenImageIO6v3_1_06paroptC2EiNS1_8SplitDirEm(ptr noundef nonnull align 8 dereferenceable(25) %0, i32 noundef %1, i16 noundef signext %2, i64 noundef %3) unnamed_addr #6 comdat align 2 {
  %5 = alloca ptr, align 8
  %6 = alloca i32, align 4
  %7 = alloca i16, align 2
  %8 = alloca i64, align 8
  store ptr %0, ptr %5, align 8, !tbaa !1409
  store i32 %1, ptr %6, align 4, !tbaa !18
  store i16 %2, ptr %7, align 2, !tbaa !1395
  store i64 %3, ptr %8, align 8, !tbaa !87
  %9 = load ptr, ptr %5, align 8
  %10 = getelementptr inbounds nuw %"class.OpenImageIO::v3_1_0::paropt", ptr %9, i32 0, i32 0
  %11 = load i32, ptr %6, align 4, !tbaa !18
  store i32 %11, ptr %10, align 8, !tbaa !1411
  %12 = getelementptr inbounds nuw %"class.OpenImageIO::v3_1_0::paropt", ptr %9, i32 0, i32 1
  store i16 0, ptr %12, align 4, !tbaa !1413
  %13 = getelementptr inbounds nuw %"class.OpenImageIO::v3_1_0::paropt", ptr %9, i32 0, i32 2
  %14 = load i16, ptr %7, align 2, !tbaa !1395
  store i16 %14, ptr %13, align 2, !tbaa !1414
  %15 = getelementptr inbounds nuw %"class.OpenImageIO::v3_1_0::paropt", ptr %9, i32 0, i32 3
  %16 = load i64, ptr %8, align 8, !tbaa !87
  store i64 %16, ptr %15, align 8, !tbaa !1415
  %17 = getelementptr inbounds nuw %"class.OpenImageIO::v3_1_0::paropt", ptr %9, i32 0, i32 4
  store ptr null, ptr %17, align 8, !tbaa !1416
  %18 = getelementptr inbounds nuw %"class.OpenImageIO::v3_1_0::paropt", ptr %9, i32 0, i32 5
  store i8 0, ptr %18, align 8, !tbaa !1417
  ret void
}

; Function Attrs: inlinehint mustprogress nounwind uwtable
define linkonce_odr noundef nonnull align 4 dereferenceable(4) ptr @_ZSt3minIiERKT_S2_S2_(ptr noundef nonnull align 4 dereferenceable(4) %0, ptr noundef nonnull align 4 dereferenceable(4) %1) #0 comdat {
  %3 = alloca ptr, align 8
  %4 = alloca ptr, align 8
  %5 = alloca ptr, align 8
  store ptr %0, ptr %4, align 8, !tbaa !213
  store ptr %1, ptr %5, align 8, !tbaa !213
  %6 = load ptr, ptr %5, align 8, !tbaa !213
  %7 = load i32, ptr %6, align 4, !tbaa !18
  %8 = load ptr, ptr %4, align 8, !tbaa !213
  %9 = load i32, ptr %8, align 4, !tbaa !18
  %10 = icmp slt i32 %7, %9
  br i1 %10, label %11, label %13

11:                                               ; preds = %2
  %12 = load ptr, ptr %5, align 8, !tbaa !213
  store ptr %12, ptr %3, align 8
  br label %15

13:                                               ; preds = %2
  %14 = load ptr, ptr %4, align 8, !tbaa !213
  store ptr %14, ptr %3, align 8
  br label %15

15:                                               ; preds = %13, %11
  %16 = load ptr, ptr %3, align 8
  ret ptr %16
}

; Function Attrs: mustprogress nounwind uwtable
define linkonce_odr hidden noundef i32 @_ZNK11OpenImageIO6v3_1_03ROI9nchannelsEv(ptr noundef nonnull align 4 dereferenceable(32) %0) #6 comdat align 2 {
  %2 = alloca ptr, align 8
  store ptr %0, ptr %2, align 8, !tbaa !1397
  %3 = load ptr, ptr %2, align 8
  %4 = getelementptr inbounds nuw %"struct.OpenImageIO::v3_1_0::ROI", ptr %3, i32 0, i32 7
  %5 = load i32, ptr %4, align 4, !tbaa !1441
  %6 = getelementptr inbounds nuw %"struct.OpenImageIO::v3_1_0::ROI", ptr %3, i32 0, i32 6
  %7 = load i32, ptr %6, align 4, !tbaa !1440
  %8 = sub nsw i32 %5, %7
  ret i32 %8
}

; Function Attrs: mustprogress uwtable
define internal noundef zeroext i1 @_ZN11OpenImageIO6v3_1_0L17colorconvert_implIffEEbRNS0_8ImageBufERKS2_PKNS0_14ColorProcessorEbNS0_3ROIEi(ptr noundef nonnull align 8 dereferenceable(16) %0, ptr noundef nonnull align 8 dereferenceable(16) %1, ptr noundef %2, i1 noundef zeroext %3, ptr noundef byval(%"struct.OpenImageIO::v3_1_0::ROI") align 8 %4, i32 noundef %5) #7 personality ptr @__gxx_personality_v0 {
  %7 = alloca ptr, align 8
  %8 = alloca ptr, align 8
  %9 = alloca ptr, align 8
  %10 = alloca i8, align 1
  %11 = alloca i32, align 4
  %12 = alloca i32, align 4
  %13 = alloca i32, align 4
  %14 = alloca i32, align 4
  %15 = alloca %"struct.OpenImageIO::v3_1_0::ROI", align 8
  %16 = alloca %"class.OpenImageIO::v3_1_0::paropt", align 8
  %17 = alloca %"class.std::function", align 8
  %18 = alloca %class.anon.270, align 8
  %19 = alloca ptr, align 8
  %20 = alloca i32, align 4
  store ptr %0, ptr %7, align 8, !tbaa !317
  store ptr %1, ptr %8, align 8, !tbaa !317
  store ptr %2, ptr %9, align 8, !tbaa !320
  %21 = zext i1 %3 to i8
  store i8 %21, ptr %10, align 1, !tbaa !8
  store i32 %5, ptr %11, align 4, !tbaa !18
  call void @llvm.lifetime.start.p0(i64 4, ptr %12) #5
  call void @llvm.lifetime.start.p0(i64 4, ptr %13) #5
  store i32 4, ptr %13, align 4, !tbaa !18
  call void @llvm.lifetime.start.p0(i64 4, ptr %14) #5
  %22 = call noundef i32 @_ZNK11OpenImageIO6v3_1_03ROI9nchannelsEv(ptr noundef nonnull align 4 dereferenceable(32) %4) #5
  store i32 %22, ptr %14, align 4, !tbaa !18
  %23 = call noundef nonnull align 4 dereferenceable(4) ptr @_ZSt3minIiERKT_S2_S2_(ptr noundef nonnull align 4 dereferenceable(4) %13, ptr noundef nonnull align 4 dereferenceable(4) %14)
  %24 = load i32, ptr %23, align 4, !tbaa !18
  call void @llvm.lifetime.end.p0(i64 4, ptr %14) #5
  call void @llvm.lifetime.end.p0(i64 4, ptr %13) #5
  store i32 %24, ptr %12, align 4, !tbaa !18
  %25 = load i32, ptr %12, align 4, !tbaa !18
  %26 = icmp slt i32 %25, 4
  br i1 %26, label %27, label %28

27:                                               ; preds = %6
  store i8 0, ptr %10, align 1, !tbaa !8
  br label %28

28:                                               ; preds = %27, %6
  call void @llvm.memcpy.p0.p0.i64(ptr align 4 %15, ptr align 8 %4, i64 32, i1 false), !tbaa.struct !319
  %29 = load i32, ptr %11, align 4, !tbaa !18
  call void @_ZN11OpenImageIO6v3_1_06paroptC2EiNS1_8SplitDirEm(ptr noundef nonnull align 8 dereferenceable(25) %16, i32 noundef %29, i16 noundef signext 1, i64 noundef 1024) #5
  call void @llvm.lifetime.start.p0(i64 32, ptr %18) #5
  %30 = getelementptr inbounds nuw %class.anon.270, ptr %18, i32 0, i32 0
  %31 = load i8, ptr %10, align 1, !tbaa !8, !range !23, !noundef !24
  %32 = trunc i8 %31 to i1
  %33 = zext i1 %32 to i8
  store i8 %33, ptr %30, align 8, !tbaa !344
  %34 = getelementptr inbounds nuw %class.anon.270, ptr %18, i32 0, i32 1
  %35 = load i32, ptr %12, align 4, !tbaa !18
  store i32 %35, ptr %34, align 4, !tbaa !346
  %36 = getelementptr inbounds nuw %class.anon.270, ptr %18, i32 0, i32 2
  %37 = load ptr, ptr %9, align 8, !tbaa !320
  store ptr %37, ptr %36, align 8, !tbaa !347
  %38 = getelementptr inbounds nuw %class.anon.270, ptr %18, i32 0, i32 3
  %39 = load ptr, ptr %8, align 8, !tbaa !317
  store ptr %39, ptr %38, align 8, !tbaa !317
  %40 = getelementptr inbounds nuw %class.anon.270, ptr %18, i32 0, i32 4
  %41 = load ptr, ptr %7, align 8, !tbaa !317
  store ptr %41, ptr %40, align 8, !tbaa !317
  call void @_ZNSt8functionIFvN11OpenImageIO6v3_1_03ROIEEEC2IZNS1_L17colorconvert_implIffEEbRNS1_8ImageBufERKS7_PKNS1_14ColorProcessorEbS2_iEUlS2_E_vEEOT_(ptr noundef nonnull align 8 dereferenceable(32) %17, ptr noundef nonnull align 8 dereferenceable(32) %18)
  invoke void @_ZN11OpenImageIO6v3_1_012ImageBufAlgo14parallel_imageENS0_3ROIENS0_6paroptESt8functionIFvS2_EE(ptr noundef byval(%"struct.OpenImageIO::v3_1_0::ROI") align 8 %15, ptr noundef byval(%"class.OpenImageIO::v3_1_0::paropt") align 8 %16, ptr noundef %17)
          to label %42 unwind label %43

42:                                               ; preds = %28
  call void @_ZNSt14_Function_baseD2Ev(ptr noundef nonnull align 8 dereferenceable(32) %17) #5
  call void @llvm.lifetime.end.p0(i64 32, ptr %18) #5
  call void @llvm.lifetime.end.p0(i64 4, ptr %12) #5
  ret i1 true

43:                                               ; preds = %28
  %44 = landingpad { ptr, i32 }
          cleanup
  %45 = extractvalue { ptr, i32 } %44, 0
  store ptr %45, ptr %19, align 8
  %46 = extractvalue { ptr, i32 } %44, 1
  store i32 %46, ptr %20, align 4
  call void @_ZNSt14_Function_baseD2Ev(ptr noundef nonnull align 8 dereferenceable(32) %17) #5
  call void @llvm.lifetime.end.p0(i64 32, ptr %18) #5
  call void @llvm.lifetime.end.p0(i64 4, ptr %12) #5
  br label %47

47:                                               ; preds = %43
  %48 = load ptr, ptr %19, align 8
  %49 = load i32, ptr %20, align 4
  %50 = insertvalue { ptr, i32 } poison, ptr %48, 0
  %51 = insertvalue { ptr, i32 } %50, i32 %49, 1
  resume { ptr, i32 } %51
}